target datalayout = "e-m:e-p270:32:32-p271:32:32-p272:64:64-i64:64-i128:128-f80:128-n8:16:32:64-S128"
target triple = "x86_64-pc-linux-gnu"

%struct.tag_PortMixer = type { ptr, i32, ptr, ptr, i32, ptr }

@.str = private unnamed_addr constant [6 x i8] c"hw:%d\00", align 1

; Function Attrs: nounwind uwtable
define hidden ptr @PORT_Open(i32 noundef %0) #0 {
  %2 = alloca ptr, align 8
  %3 = alloca i32, align 4
  %4 = alloca [16 x i8], align 16
  %5 = alloca ptr, align 8
  %6 = alloca i32, align 4
  %7 = alloca ptr, align 8
  store i32 %0, ptr %3, align 4
  %8 = getelementptr inbounds [16 x i8], ptr %4, i64 0, i64 0
  %9 = load i32, ptr %3, align 4
  %10 = call i32 (ptr, i64, ptr, ...) @snprintf(ptr noundef %8, i64 noundef 16, ptr noundef @.str, i32 noundef %9) #7
  %11 = call i32 @snd_mixer_open(ptr noundef %5, i32 noundef 0)
  store i32 %11, ptr %6, align 4
  %12 = icmp slt i32 %11, 0
  br i1 %12, label %13, label %14

13:                                               ; preds = %1
  store ptr null, ptr %2, align 8
  br label %98

14:                                               ; preds = %1
  %15 = load ptr, ptr %5, align 8
  %16 = getelementptr inbounds [16 x i8], ptr %4, i64 0, i64 0
  %17 = call i32 @snd_mixer_attach(ptr noundef %15, ptr noundef %16)
  store i32 %17, ptr %6, align 4
  %18 = icmp slt i32 %17, 0
  br i1 %18, label %19, label %22

19:                                               ; preds = %14
  %20 = load ptr, ptr %5, align 8
  %21 = call i32 @snd_mixer_close(ptr noundef %20)
  store ptr null, ptr %2, align 8
  br label %98

22:                                               ; preds = %14
  %23 = load ptr, ptr %5, align 8
  %24 = call i32 @snd_mixer_selem_register(ptr noundef %23, ptr noundef null, ptr noundef null)
  store i32 %24, ptr %6, align 4
  %25 = icmp slt i32 %24, 0
  br i1 %25, label %26, label %29

26:                                               ; preds = %22
  %27 = load ptr, ptr %5, align 8
  %28 = call i32 @snd_mixer_close(ptr noundef %27)
  store ptr null, ptr %2, align 8
  br label %98

29:                                               ; preds = %22
  %30 = load ptr, ptr %5, align 8
  %31 = call i32 @snd_mixer_load(ptr noundef %30)
  store i32 %31, ptr %6, align 4
  %32 = load i32, ptr %6, align 4
  %33 = icmp slt i32 %32, 0
  br i1 %33, label %34, label %37

34:                                               ; preds = %29
  %35 = load ptr, ptr %5, align 8
  %36 = call i32 @snd_mixer_close(ptr noundef %35)
  store ptr null, ptr %2, align 8
  br label %98

37:                                               ; preds = %29
  %38 = call noalias ptr @calloc(i64 noundef 1, i64 noundef 48) #9
  store ptr %38, ptr %7, align 8
  %39 = load ptr, ptr %7, align 8
  %40 = icmp eq ptr %39, null
  br i1 %40, label %41, label %44

41:                                               ; preds = %37
  %42 = load ptr, ptr %5, align 8
  %43 = call i32 @snd_mixer_close(ptr noundef %42)
  store ptr null, ptr %2, align 8
  br label %98

44:                                               ; preds = %37
  %45 = load ptr, ptr %7, align 8
  %46 = getelementptr inbounds %struct.tag_PortMixer, ptr %45, i32 0, i32 1
  store i32 0, ptr %46, align 8
  %47 = call noalias ptr @calloc(i64 noundef 300, i64 noundef 8) #9
  %48 = load ptr, ptr %7, align 8
  %49 = getelementptr inbounds %struct.tag_PortMixer, ptr %48, i32 0, i32 2
  store ptr %47, ptr %49, align 8
  %50 = load ptr, ptr %7, align 8
  %51 = getelementptr inbounds %struct.tag_PortMixer, ptr %50, i32 0, i32 2
  %52 = load ptr, ptr %51, align 8
  %53 = icmp eq ptr %52, null
  br i1 %53, label %54, label %58

54:                                               ; preds = %44
  %55 = load ptr, ptr %5, align 8
  %56 = call i32 @snd_mixer_close(ptr noundef %55)
  %57 = load ptr, ptr %7, align 8
  call void @free(ptr noundef %57) #7
  store ptr null, ptr %2, align 8
  br label %98

58:                                               ; preds = %44
  %59 = call noalias ptr @calloc(i64 noundef 300, i64 noundef 4) #9
  %60 = load ptr, ptr %7, align 8
  %61 = getelementptr inbounds %struct.tag_PortMixer, ptr %60, i32 0, i32 3
  store ptr %59, ptr %61, align 8
  %62 = load ptr, ptr %7, align 8
  %63 = getelementptr inbounds %struct.tag_PortMixer, ptr %62, i32 0, i32 3
  %64 = load ptr, ptr %63, align 8
  %65 = icmp eq ptr %64, null
  br i1 %65, label %66, label %73

66:                                               ; preds = %58
  %67 = load ptr, ptr %5, align 8
  %68 = call i32 @snd_mixer_close(ptr noundef %67)
  %69 = load ptr, ptr %7, align 8
  %70 = getelementptr inbounds %struct.tag_PortMixer, ptr %69, i32 0, i32 2
  %71 = load ptr, ptr %70, align 8
  call void @free(ptr noundef %71) #7
  %72 = load ptr, ptr %7, align 8
  call void @free(ptr noundef %72) #7
  store ptr null, ptr %2, align 8
  br label %98

73:                                               ; preds = %58
  %74 = call noalias ptr @calloc(i64 noundef 1200, i64 noundef 32) #9
  %75 = load ptr, ptr %7, align 8
  %76 = getelementptr inbounds %struct.tag_PortMixer, ptr %75, i32 0, i32 5
  store ptr %74, ptr %76, align 8
  %77 = load ptr, ptr %7, align 8
  %78 = getelementptr inbounds %struct.tag_PortMixer, ptr %77, i32 0, i32 5
  %79 = load ptr, ptr %78, align 8
  %80 = icmp eq ptr %79, null
  br i1 %80, label %81, label %91

81:                                               ; preds = %73
  %82 = load ptr, ptr %5, align 8
  %83 = call i32 @snd_mixer_close(ptr noundef %82)
  %84 = load ptr, ptr %7, align 8
  %85 = getelementptr inbounds %struct.tag_PortMixer, ptr %84, i32 0, i32 2
  %86 = load ptr, ptr %85, align 8
  call void @free(ptr noundef %86) #7
  %87 = load ptr, ptr %7, align 8
  %88 = getelementptr inbounds %struct.tag_PortMixer, ptr %87, i32 0, i32 3
  %89 = load ptr, ptr %88, align 8
  call void @free(ptr noundef %89) #7
  %90 = load ptr, ptr %7, align 8
  call void @free(ptr noundef %90) #7
  store ptr null, ptr %2, align 8
  br label %98

91:                                               ; preds = %73
  %92 = load ptr, ptr %5, align 8
  %93 = load ptr, ptr %7, align 8
  %94 = getelementptr inbounds %struct.tag_PortMixer, ptr %93, i32 0, i32 0
  store ptr %92, ptr %94, align 8
  %95 = load ptr, ptr %7, align 8
  %96 = call i32 @PORT_GetPortCount(ptr noundef %95)
  %97 = load ptr, ptr %7, align 8
  store ptr %97, ptr %2, align 8
  br label %98

98:                                               ; preds = %91, %81, %66, %54, %41, %34, %26, %19, %13
  %99 = load ptr, ptr %2, align 8
  ret ptr %99
}