; Function Attrs: nounwind uwtable
define hidden noundef ptr @PORT_Open(i32 noundef %0) local_unnamed_addr #0 {
  %2 = alloca [16 x i8], align 16
  %3 = alloca ptr, align 8
  %4 = call i32 (ptr, i64, ptr, ...) @snprintf(ptr noundef nonnull dereferenceable(1) %2, i64 noundef 16, ptr noundef nonnull @.str, i32 noundef %0) #11
  %5 = call i32 @snd_mixer_open(ptr noundef nonnull %3, i32 noundef 0) #11
  %6 = icmp slt i32 %5, 0
  br i1 %6, label %55, label %7

7:                                                ; preds = %1
  %8 = load ptr, ptr %3, align 8
  %9 = call i32 @snd_mixer_attach(ptr noundef %8, ptr noundef nonnull %2) #11
  %10 = icmp slt i32 %9, 0
  %11 = load ptr, ptr %3, align 8
  br i1 %10, label %12, label %14

12:                                               ; preds = %7
  %13 = call i32 @snd_mixer_close(ptr noundef %11) #11
  br label %55

14:                                               ; preds = %7
  %15 = call i32 @snd_mixer_selem_register(ptr noundef %11, ptr noundef null, ptr noundef null) #11
  %16 = icmp slt i32 %15, 0
  %17 = load ptr, ptr %3, align 8
  br i1 %16, label %18, label %20

18:                                               ; preds = %14
  %19 = call i32 @snd_mixer_close(ptr noundef %17) #11
  br label %55

20:                                               ; preds = %14
  %21 = call i32 @snd_mixer_load(ptr noundef %17) #11
  %22 = icmp slt i32 %21, 0
  br i1 %22, label %23, label %26

23:                                               ; preds = %20
  %24 = load ptr, ptr %3, align 8
  %25 = call i32 @snd_mixer_close(ptr noundef %24) #11
  br label %55

26:                                               ; preds = %20
  %27 = call noalias dereferenceable_or_null(48) ptr @calloc(i64 noundef 1, i64 noundef 48) #13
  %28 = icmp eq ptr %27, null
  br i1 %28, label %29, label %32

29:                                               ; preds = %26
  %30 = load ptr, ptr %3, align 8
  %31 = call i32 @snd_mixer_close(ptr noundef %30) #11
  br label %55

32:                                               ; preds = %26
  %33 = call noalias dereferenceable_or_null(2400) ptr @calloc(i64 noundef 300, i64 noundef 8) #13
  %34 = getelementptr inbounds i8, ptr %27, i64 16
  store ptr %33, ptr %34, align 8
  %35 = icmp eq ptr %33, null
  br i1 %35, label %36, label %39

36:                                               ; preds = %32
  %37 = load ptr, ptr %3, align 8
  %38 = call i32 @snd_mixer_close(ptr noundef %37) #11
  call void @free(ptr noundef nonnull %27) #11
  br label %55

39:                                               ; preds = %32
  %40 = call noalias dereferenceable_or_null(1200) ptr @calloc(i64 noundef 300, i64 noundef 4) #13
  %41 = getelementptr inbounds i8, ptr %27, i64 24
  store ptr %40, ptr %41, align 8
  %42 = icmp eq ptr %40, null
  br i1 %42, label %43, label %46

43:                                               ; preds = %39
  %44 = load ptr, ptr %3, align 8
  %45 = call i32 @snd_mixer_close(ptr noundef %44) #11
  call void @free(ptr noundef nonnull %33) #11
  call void @free(ptr noundef nonnull %27) #11
  br label %55

46:                                               ; preds = %39
  %47 = call noalias dereferenceable_or_null(38400) ptr @calloc(i64 noundef 1200, i64 noundef 32) #13
  %48 = getelementptr inbounds i8, ptr %27, i64 40
  store ptr %47, ptr %48, align 8
  %49 = icmp eq ptr %47, null
  %50 = load ptr, ptr %3, align 8
  br i1 %49, label %51, label %53

51:                                               ; preds = %46
  %52 = call i32 @snd_mixer_close(ptr noundef %50) #11
  call void @free(ptr noundef nonnull %33) #11
  call void @free(ptr noundef nonnull %40) #11
  call void @free(ptr noundef nonnull %27) #11
  br label %55

53:                                               ; preds = %46
  store ptr %50, ptr %27, align 8
  %54 = call i32 @PORT_GetPortCount(ptr noundef nonnull %27)
  br label %55

55:                                               ; preds = %1, %53, %51, %43, %36, %29, %23, %18, %12
  %.0 = phi ptr [ null, %12 ], [ null, %18 ], [ null, %23 ], [ null, %29 ], [ null, %36 ], [ null, %43 ], [ null, %51 ], [ %27, %53 ], [ null, %1 ]
  ret ptr %.0
}